target datalayout = "e-m:e-p270:32:32-p271:32:32-p272:64:64-i64:64-i128:128-f80:128-n8:16:32:64-S128"
target triple = "x86_64-pc-linux-gnu"

%struct.Gia_Man_t_ = type { ptr, ptr, i32, i32, i32, i32, ptr, ptr, i32, i32, i32, ptr, ptr, %struct.Vec_Int_t_, %struct.Vec_Int_t_, i32, i32, i32, %struct.Vec_Int_t_, ptr, ptr, ptr, i32, i32, i32, i32, ptr, ptr, ptr, ptr, ptr, i32, i32, ptr, i32, ptr, ptr, ptr, ptr, ptr, ptr, ptr, ptr, ptr, ptr, ptr, ptr, ptr, ptr, ptr, ptr, ptr, ptr, %struct.Vec_Int_t_, %struct.Vec_Int_t_, ptr, ptr, ptr, ptr, ptr, ptr, ptr, ptr, ptr, ptr, ptr, ptr, ptr, ptr, ptr, ptr, ptr, ptr, ptr, ptr, ptr, i32, float, float, ptr, ptr, i32, ptr, ptr, ptr, ptr, ptr, ptr, ptr, ptr, ptr, ptr, ptr, ptr, ptr, ptr, ptr, i64, i64, ptr, ptr, i32, i32, i32, i32, i32, i32, i32, i32, i32, i32, i32, i32, ptr, ptr, ptr, ptr, ptr, ptr, ptr, ptr, i32, i32, i32, ptr, i32, i32, ptr, ptr, ptr, ptr, ptr, ptr, i32, i32, ptr, %struct.Vec_Int_t_, %struct.Vec_Int_t_, %struct.Vec_Int_t_, ptr, ptr, ptr, i32, i32, i32, i32, ptr, ptr, ptr, ptr, ptr }
%struct.Vec_Int_t_ = type { i32, i32, ptr }
%struct.Swp_Man_t_ = type { ptr, i32, i32, ptr, ptr, ptr, ptr, ptr, ptr, ptr, ptr, ptr, i32, i32, i32, i32, i32, i32, i64, i64, i64, i64, i64, i64, i64 }

; Function Attrs: inlinehint nounwind uwtable
define internal i32 @Vec_IntCap(ptr noundef %0) #2 {
  %2 = alloca ptr, align 8
  store ptr %0, ptr %2, align 8, !tbaa !29
  %3 = load ptr, ptr %2, align 8, !tbaa !29
  %4 = getelementptr inbounds nuw %struct.Vec_Int_t_, ptr %3, i32 0, i32 0
  %5 = load i32, ptr %4, align 8, !tbaa !51
  ret i32 %5
}

; Function Attrs: nounwind uwtable
define double @Gia_SweeperMemUsage(ptr noundef %0) #0 {
  %2 = alloca ptr, align 8
  %3 = alloca ptr, align 8
  %4 = alloca double, align 8
  store ptr %0, ptr %2, align 8, !tbaa !3
  call void @llvm.lifetime.start.p0(i64 8, ptr %3) #13
  %5 = load ptr, ptr %2, align 8, !tbaa !3
  %6 = getelementptr inbounds nuw %struct.Gia_Man_t_, ptr %5, i32 0, i32 99
  %7 = load ptr, ptr %6, align 8, !tbaa !33
  store ptr %7, ptr %3, align 8, !tbaa !31
  call void @llvm.lifetime.start.p0(i64 8, ptr %4) #13
  store double 1.680000e+02, ptr %4, align 8, !tbaa !49
  %8 = load ptr, ptr %3, align 8, !tbaa !31
  %9 = getelementptr inbounds nuw %struct.Swp_Man_t_, ptr %8, i32 0, i32 3
  %10 = load ptr, ptr %9, align 8, !tbaa !38
  %11 = call i32 @Vec_IntCap(ptr noundef %10)
  %12 = sitofp i32 %11 to double
  %13 = load double, ptr %4, align 8, !tbaa !49
  %14 = fadd double %13, %12
  store double %14, ptr %4, align 8, !tbaa !49
  %15 = load ptr, ptr %3, align 8, !tbaa !31
  %16 = getelementptr inbounds nuw %struct.Swp_Man_t_, ptr %15, i32 0, i32 4
  %17 = load ptr, ptr %16, align 8, !tbaa !39
  %18 = call i32 @Vec_IntCap(ptr noundef %17)
  %19 = sitofp i32 %18 to double
  %20 = load double, ptr %4, align 8, !tbaa !49
  %21 = fadd double %20, %19
  store double %21, ptr %4, align 8, !tbaa !49
  %22 = load ptr, ptr %3, align 8, !tbaa !31
  %23 = getelementptr inbounds nuw %struct.Swp_Man_t_, ptr %22, i32 0, i32 5
  %24 = load ptr, ptr %23, align 8, !tbaa !40
  %25 = call i32 @Vec_IntCap(ptr noundef %24)
  %26 = sitofp i32 %25 to double
  %27 = load double, ptr %4, align 8, !tbaa !49
  %28 = fadd double %27, %26
  store double %28, ptr %4, align 8, !tbaa !49
  %29 = load ptr, ptr %3, align 8, !tbaa !31
  %30 = getelementptr inbounds nuw %struct.Swp_Man_t_, ptr %29, i32 0, i32 7
  %31 = load ptr, ptr %30, align 8, !tbaa !41
  %32 = call i32 @Vec_IntCap(ptr noundef %31)
  %33 = sitofp i32 %32 to double
  %34 = load double, ptr %4, align 8, !tbaa !49
  %35 = fadd double %34, %33
  store double %35, ptr %4, align 8, !tbaa !49
  %36 = load ptr, ptr %3, align 8, !tbaa !31
  %37 = getelementptr inbounds nuw %struct.Swp_Man_t_, ptr %36, i32 0, i32 8
  %38 = load ptr, ptr %37, align 8, !tbaa !42
  %39 = call i32 @Vec_IntCap(ptr noundef %38)
  %40 = sitofp i32 %39 to double
  %41 = load double, ptr %4, align 8, !tbaa !49
  %42 = fadd double %41, %40
  store double %42, ptr %4, align 8, !tbaa !49
  %43 = load ptr, ptr %3, align 8, !tbaa !31
  %44 = getelementptr inbounds nuw %struct.Swp_Man_t_, ptr %43, i32 0, i32 9
  %45 = load ptr, ptr %44, align 8, !tbaa !43
  %46 = call i32 @Vec_IntCap(ptr noundef %45)
  %47 = sitofp i32 %46 to double
  %48 = load double, ptr %4, align 8, !tbaa !49
  %49 = fadd double %48, %47
  store double %49, ptr %4, align 8, !tbaa !49
  %50 = load ptr, ptr %3, align 8, !tbaa !31
  %51 = getelementptr inbounds nuw %struct.Swp_Man_t_, ptr %50, i32 0, i32 10
  %52 = load ptr, ptr %51, align 8, !tbaa !44
  %53 = call i32 @Vec_IntCap(ptr noundef %52)
  %54 = sitofp i32 %53 to double
  %55 = load double, ptr %4, align 8, !tbaa !49
  %56 = fadd double %55, %54
  store double %56, ptr %4, align 8, !tbaa !49
  %57 = load double, ptr %4, align 8, !tbaa !49
  %58 = fmul double 4.000000e+00, %57
  call void @llvm.lifetime.end.p0(i64 8, ptr %4) #13
  call void @llvm.lifetime.end.p0(i64 8, ptr %3) #13
  ret double %58
}