; Function Attrs: mustprogress nofree norecurse nosync nounwind willreturn memory(read, inaccessiblemem: none) uwtable
define double @Gia_SweeperMemUsage(ptr noundef readonly captures(none) %0) local_unnamed_addr #3 {
  %2 = getelementptr inbounds nuw i8, ptr %0, i64 768
  %3 = load ptr, ptr %2, align 8, !tbaa !10
  %4 = getelementptr inbounds nuw i8, ptr %3, i64 16
  %5 = load ptr, ptr %4, align 8, !tbaa !35
  %.val = load i32, ptr %5, align 8, !tbaa !33
  %6 = sitofp i32 %.val to double
  %7 = fadd double %6, 1.680000e+02
  %8 = getelementptr inbounds nuw i8, ptr %3, i64 24
  %9 = load ptr, ptr %8, align 8, !tbaa !36
  %.val16 = load i32, ptr %9, align 8, !tbaa !33
  %10 = sitofp i32 %.val16 to double
  %11 = fadd double %7, %10
  %12 = getelementptr inbounds nuw i8, ptr %3, i64 32
  %13 = load ptr, ptr %12, align 8, !tbaa !37
  %.val17 = load i32, ptr %13, align 8, !tbaa !33
  %14 = sitofp i32 %.val17 to double
  %15 = fadd double %11, %14
  %16 = getelementptr inbounds nuw i8, ptr %3, i64 48
  %17 = load ptr, ptr %16, align 8, !tbaa !38
  %.val18 = load i32, ptr %17, align 8, !tbaa !33
  %18 = sitofp i32 %.val18 to double
  %19 = fadd double %15, %18
  %20 = getelementptr inbounds nuw i8, ptr %3, i64 56
  %21 = load ptr, ptr %20, align 8, !tbaa !39
  %.val19 = load i32, ptr %21, align 8, !tbaa !33
  %22 = sitofp i32 %.val19 to double
  %23 = fadd double %19, %22
  %24 = getelementptr inbounds nuw i8, ptr %3, i64 64
  %25 = load ptr, ptr %24, align 8, !tbaa !40
  %.val20 = load i32, ptr %25, align 8, !tbaa !33
  %26 = sitofp i32 %.val20 to double
  %27 = fadd double %23, %26
  %28 = getelementptr inbounds nuw i8, ptr %3, i64 72
  %29 = load ptr, ptr %28, align 8, !tbaa !41
  %.val21 = load i32, ptr %29, align 8, !tbaa !33
  %30 = sitofp i32 %.val21 to double
  %31 = fadd double %27, %30
  %32 = fmul double %31, 4.000000e+00
  ret double %32
}